Certificate:
    Data:
        Version: 3 (0x2)
        Serial Number:
            c0:7c:04:fb:ef:30:71:33
    Signature Algorithm: md5WithRSAEncryption
        Issuer: C=AU, ST=Victoria, L=Melbourne, O=Harris, OU=Skunk Werx, CN=Robert Distel
        Validity
            Not Before: Apr  8 02:00:46 2018 GMT
            Not After : Apr  8 02:00:46 2019 GMT
        Subject: C=AU, ST=Victoria, O=Harris, OU=Skunk Werx, CN=Test Peer 2
        Subject Public Key Info:
            Public Key Algorithm: rsaEncryption
                Public-Key: (2048 bit)
                Modulus:
                    00:e2:09:e3:75:0b:56:e6:fe:9f:5c:64:36:30:f6:
                    73:60:d3:46:f6:ca:af:d8:27:e4:d2:cf:9a:d6:4b:
                    8c:c0:3b:3d:7d:26:0c:9c:9a:e2:28:ac:4a:98:86:
                    a7:a9:3b:1f:64:12:81:a9:3f:9d:23:d8:ac:03:b6:
                    03:8a:c5:c4:35:cb:17:57:d2:2c:4b:b1:58:2d:3b:
                    d6:c1:e7:72:dc:48:e1:b0:0b:1f:bd:7f:76:a8:5c:
                    d3:0e:c3:03:d4:d6:59:5a:43:ce:17:0d:17:35:b4:
                    08:08:9d:ce:3b:c1:a8:54:27:13:b2:2c:de:2a:13:
                    e0:68:87:dd:66:ab:37:6a:7a:21:6b:ae:ec:78:7f:
                    35:0b:db:40:0b:2d:3e:01:9a:e4:26:f0:4f:22:94:
                    6b:12:08:07:b6:54:11:77:9c:9a:9b:b1:34:0d:3a:
                    c2:34:fb:b8:c6:e6:fe:0a:22:8d:1e:b7:c6:8c:62:
                    86:3b:21:4e:b2:33:cf:4d:04:4c:e3:75:4b:8d:ab:
                    2f:7f:54:d1:ea:7e:ef:95:05:bc:aa:94:66:88:35:
                    54:15:4e:87:48:fe:3c:b3:3f:fa:6f:69:1a:27:eb:
                    ea:d6:48:a0:af:4f:16:d8:76:8d:ac:38:57:fd:38:
                    90:35:d4:6f:6b:45:cc:28:13:47:a4:1a:ae:44:24:
                    fd:39
                Exponent: 65537 (0x10001)
        X509v3 extensions:
            X509v3 Basic Constraints: 
                CA:FALSE
            Netscape Comment: 
                OpenSSL Generated Certificate
            X509v3 Subject Key Identifier: 
                CE:E5:C3:99:DF:98:DE:54:E7:90:4E:C8:96:5A:08:1D:49:4F:60:03
            X509v3 Authority Key Identifier: 
                keyid:CD:54:76:81:DF:25:0B:B4:BD:8F:78:E1:9C:D9:13:9A:DF:FD:BA:0F
                DirName:/C=AU/ST=Victoria/L=Melbourne/O=Harris/OU=Skunk Werx/CN=Robert Distel
                serial:BB:B6:D5:38:A3:EE:3B:82

    Signature Algorithm: md5WithRSAEncryption
         61:ba:04:25:6d:6a:b7:c5:3d:59:96:f1:37:f0:d9:72:97:38:
         ee:eb:7a:1e:df:16:27:cf:b3:74:0c:5d:71:de:dc:30:84:22:
         12:b2:a7:c9:51:bd:22:a9:52:71:b2:8a:60:7c:df:83:33:07:
         44:47:df:65:00:27:04:d6:8b:b8:2f:83:49:60:95:e9:79:1d:
         df:ab:16:e5:d9:71:2b:b5:c1:67:f5:5b:84:76:3a:a7:69:06:
         4a:b7:37:2f:79:8d:a9:66:3a:42:25:da:78:37:e5:62:a4:2e:
         25:bc:35:de:cf:7e:4b:f9:bd:44:c8:46:76:43:66:ed:bc:ed:
         18:ab:a8:69:9f:00:27:53:69:d6:cd:f3:f2:a2:a3:1f:86:28:
         00:a1:7f:8d:5c:55:a4:69:fd:fc:22:6d:64:a4:3c:9a:d2:95:
         82:13:1d:d7:fb:b3:1a:86:53:6e:92:be:8b:f9:8e:a8:e1:74:
         84:90:71:65:50:06:d7:ba:fd:16:19:f7:9c:3d:f7:fc:40:f6:
         14:5a:75:1e:48:50:8b:aa:7b:6c:03:6c:98:a3:35:05:d7:15:
         19:b5:1c:ba:ef:98:86:bb:2d:76:e6:bf:80:df:4a:b5:36:98:
         56:aa:ba:70:29:b2:61:e8:2d:49:08:50:58:55:a4:92:93:cb:
         d7:83:d3:44
-----BEGIN CERTIFICATE-----
MIIEVTCCAz2gAwIBAgIJAMB8BPvvMHEzMA0GCSqGSIb3DQEBBAUAMHIxCzAJBgNV
BAYTAkFVMREwDwYDVQQIEwhWaWN0b3JpYTESMBAGA1UEBxMJTWVsYm91cm5lMQ8w
DQYDVQQKEwZIYXJyaXMxEzARBgNVBAsTClNrdW5rIFdlcngxFjAUBgNVBAMTDVJv
YmVydCBEaXN0ZWwwHhcNMTgwNDA4MDIwMDQ2WhcNMTkwNDA4MDIwMDQ2WjBcMQsw
CQYDVQQGEwJBVTERMA8GA1UECBMIVmljdG9yaWExDzANBgNVBAoTBkhhcnJpczET
MBEGA1UECxMKU2t1bmsgV2VyeDEUMBIGA1UEAxMLVGVzdCBQZWVyIDIwggEiMA0G
CSqGSIb3DQEBAQUAA4IBDwAwggEKAoIBAQDiCeN1C1bm/p9cZDYw9nNg00b2yq/Y
J+TSz5rWS4zAOz19JgycmuIorEqYhqepOx9kEoGpP50j2KwDtgOKxcQ1yxdX0ixL
sVgtO9bB53LcSOGwCx+9f3aoXNMOwwPU1llaQ84XDRc1tAgInc47wahUJxOyLN4q
E+Boh91mqzdqeiFrrux4fzUL20ALLT4BmuQm8E8ilGsSCAe2VBF3nJqbsTQNOsI0
+7jG5v4KIo0et8aMYoY7IU6yM89NBEzjdUuNqy9/VNHqfu+VBbyqlGaINVQVTodI
/jyzP/pvaRon6+rWSKCvTxbYdo2sOFf9OJA11G9rRcwoE0ekGq5EJP05AgMBAAGj
ggECMIH/MAkGA1UdEwQCMAAwLAYJYIZIAYb4QgENBB8WHU9wZW5TU0wgR2VuZXJh
dGVkIENlcnRpZmljYXRlMB0GA1UdDgQWBBTO5cOZ35jeVOeQTsiWWggdSU9gAzCB
pAYDVR0jBIGcMIGZgBTNVHaB3yULtL2PeOGc2ROa3/26D6F2pHQwcjELMAkGA1UE
BhMCQVUxETAPBgNVBAgTCFZpY3RvcmlhMRIwEAYDVQQHEwlNZWxib3VybmUxDzAN
BgNVBAoTBkhhcnJpczETMBEGA1UECxMKU2t1bmsgV2VyeDEWMBQGA1UEAxMNUm9i
ZXJ0IERpc3RlbIIJALu21Tij7juCMA0GCSqGSIb3DQEBBAUAA4IBAQBhugQlbWq3
xT1ZlvE38Nlylzju63oe3xYnz7N0DF1x3twwhCISsqfJUb0iqVJxsopgfN+DMwdE
R99lACcE1ou4L4NJYJXpeR3fqxbl2XErtcFn9VuEdjqnaQZKtzcveY2pZjpCJdp4
N+VipC4lvDXez35L+b1EyEZ2Q2btvO0Yq6hpnwAnU2nWzfPyoqMfhigAoX+NXFWk
af38Im1kpDya0pWCEx3X+7MahlNukr6L+Y6o4XSEkHFlUAbXuv0WGfecPff8QPYU
WnUeSFCLqntsA2yYozUF1xUZtRy675iGuy125r+A30q1NphWqrpwKbJh6C1JCFBY
VaSSk8vXg9NE
-----END CERTIFICATE-----
