Certificate:
    Data:
        Version: 3 (0x2)
        Serial Number:
            c0:7c:04:fb:ef:30:71:32
    Signature Algorithm: md5WithRSAEncryption
        Issuer: C=AU, ST=Victoria, L=Melbourne, O=Harris, OU=Skunk Werx, CN=Robert Distel
        Validity
            Not Before: Apr  8 01:58:51 2018 GMT
            Not After : Apr  8 01:58:51 2019 GMT
        Subject: C=AU, ST=Victoria, O=Harris, OU=Skunk Werx, CN=Test Peer 1
        Subject Public Key Info:
            Public Key Algorithm: rsaEncryption
                Public-Key: (2048 bit)
                Modulus:
                    00:be:c0:9d:4f:04:bf:27:32:7d:dd:f7:dc:74:77:
                    ac:c9:c5:7c:36:ad:b2:80:3f:9d:a3:1b:28:ac:34:
                    b5:4d:94:de:90:cc:84:fd:e6:e3:92:a0:56:e6:60:
                    1c:d2:c7:3a:63:bd:17:d8:27:9d:25:66:10:ea:53:
                    ed:c3:76:65:7d:f2:7b:d9:f6:8f:5c:5f:b1:3e:3f:
                    b1:84:d4:d4:ce:2c:fe:c3:d1:83:1e:5e:8f:83:53:
                    0b:9c:11:4a:e0:ac:c1:8a:6a:07:ef:07:fd:f9:83:
                    9d:1c:ab:e0:31:dd:44:54:05:cb:df:1a:83:c8:cd:
                    39:34:5f:ea:fa:41:ab:36:9a:b1:4f:be:03:2f:96:
                    cc:a1:c0:6c:01:49:ae:b5:dd:45:ed:a9:83:b8:b7:
                    d5:93:06:a2:90:84:2a:85:4f:90:62:8b:63:ae:a5:
                    82:4c:81:25:30:ba:9e:d9:65:39:b5:80:48:41:39:
                    f2:45:89:f4:7a:c3:2e:84:8a:3b:7b:fd:8b:69:10:
                    cf:2e:e9:45:ac:9e:c2:4f:a2:fd:25:a2:60:8a:7f:
                    61:d0:dd:16:30:52:40:73:59:8d:12:5d:42:09:56:
                    89:31:77:b0:f6:ed:dd:8c:aa:d9:b2:29:c9:c5:b7:
                    8e:60:86:1a:55:e2:fc:df:de:e9:f1:8f:b3:a2:ef:
                    c6:9f
                Exponent: 65537 (0x10001)
        X509v3 extensions:
            X509v3 Basic Constraints: 
                CA:FALSE
            Netscape Comment: 
                OpenSSL Generated Certificate
            X509v3 Subject Key Identifier: 
                4C:72:08:89:EB:58:D7:FD:91:48:08:F5:4D:37:DD:13:A7:66:EF:2F
            X509v3 Authority Key Identifier: 
                keyid:CD:54:76:81:DF:25:0B:B4:BD:8F:78:E1:9C:D9:13:9A:DF:FD:BA:0F
                DirName:/C=AU/ST=Victoria/L=Melbourne/O=Harris/OU=Skunk Werx/CN=Robert Distel
                serial:BB:B6:D5:38:A3:EE:3B:82

    Signature Algorithm: md5WithRSAEncryption
         76:21:0e:ea:c7:e3:8b:34:64:ee:0a:85:e5:74:d7:0a:ec:0f:
         e5:7e:db:9f:f1:f5:79:fa:f0:63:48:6b:16:9b:39:2a:ed:f4:
         bc:d9:c9:5c:d1:5d:33:b1:ac:52:4e:e4:66:12:4d:c8:3a:bc:
         7c:3f:80:c6:f3:70:3e:91:27:2f:d4:7e:09:ba:46:b9:eb:b7:
         02:78:7a:27:ef:6a:4f:2b:20:5b:71:7f:92:37:a9:bd:b9:55:
         d2:08:10:82:7e:d1:22:16:27:bb:1c:cb:ff:89:82:1a:02:4e:
         44:83:94:f9:4f:c2:4a:f3:d0:b8:39:6d:ef:78:fe:6a:44:75:
         0b:e6:54:52:03:f9:41:3f:7d:ee:0c:8b:c4:43:6c:46:b9:e6:
         f0:4f:8b:21:a7:ff:16:07:00:5d:95:db:6a:eb:35:a7:dd:c0:
         fa:66:9a:b6:85:e7:41:ab:3c:c1:ee:05:74:ea:46:cf:e6:bd:
         ae:f0:b2:f8:13:6f:30:92:e6:c7:97:dc:32:7c:64:f4:db:34:
         c2:50:ce:01:de:0b:16:51:58:5b:9c:d3:00:16:93:b5:da:7e:
         7d:6b:16:d6:f5:86:88:63:1c:66:fc:bd:9c:69:d1:dd:6b:56:
         d4:0a:3a:d6:c1:01:dc:0c:6d:d9:b1:88:ca:81:89:ec:8f:d0:
         a2:71:e3:20
-----BEGIN CERTIFICATE-----
MIIEVTCCAz2gAwIBAgIJAMB8BPvvMHEyMA0GCSqGSIb3DQEBBAUAMHIxCzAJBgNV
BAYTAkFVMREwDwYDVQQIEwhWaWN0b3JpYTESMBAGA1UEBxMJTWVsYm91cm5lMQ8w
DQYDVQQKEwZIYXJyaXMxEzARBgNVBAsTClNrdW5rIFdlcngxFjAUBgNVBAMTDVJv
YmVydCBEaXN0ZWwwHhcNMTgwNDA4MDE1ODUxWhcNMTkwNDA4MDE1ODUxWjBcMQsw
CQYDVQQGEwJBVTERMA8GA1UECBMIVmljdG9yaWExDzANBgNVBAoTBkhhcnJpczET
MBEGA1UECxMKU2t1bmsgV2VyeDEUMBIGA1UEAxMLVGVzdCBQZWVyIDEwggEiMA0G
CSqGSIb3DQEBAQUAA4IBDwAwggEKAoIBAQC+wJ1PBL8nMn3d99x0d6zJxXw2rbKA
P52jGyisNLVNlN6QzIT95uOSoFbmYBzSxzpjvRfYJ50lZhDqU+3DdmV98nvZ9o9c
X7E+P7GE1NTOLP7D0YMeXo+DUwucEUrgrMGKagfvB/35g50cq+Ax3URUBcvfGoPI
zTk0X+r6Qas2mrFPvgMvlsyhwGwBSa613UXtqYO4t9WTBqKQhCqFT5Bii2OupYJM
gSUwup7ZZTm1gEhBOfJFifR6wy6Eijt7/YtpEM8u6UWsnsJPov0lomCKf2HQ3RYw
UkBzWY0SXUIJVokxd7D27d2MqtmyKcnFt45ghhpV4vzf3unxj7Oi78afAgMBAAGj
ggECMIH/MAkGA1UdEwQCMAAwLAYJYIZIAYb4QgENBB8WHU9wZW5TU0wgR2VuZXJh
dGVkIENlcnRpZmljYXRlMB0GA1UdDgQWBBRMcgiJ61jX/ZFICPVNN90Tp2bvLzCB
pAYDVR0jBIGcMIGZgBTNVHaB3yULtL2PeOGc2ROa3/26D6F2pHQwcjELMAkGA1UE
BhMCQVUxETAPBgNVBAgTCFZpY3RvcmlhMRIwEAYDVQQHEwlNZWxib3VybmUxDzAN
BgNVBAoTBkhhcnJpczETMBEGA1UECxMKU2t1bmsgV2VyeDEWMBQGA1UEAxMNUm9i
ZXJ0IERpc3RlbIIJALu21Tij7juCMA0GCSqGSIb3DQEBBAUAA4IBAQB2IQ7qx+OL
NGTuCoXldNcK7A/lftuf8fV5+vBjSGsWmzkq7fS82clc0V0zsaxSTuRmEk3IOrx8
P4DG83A+kScv1H4Juka567cCeHon72pPKyBbcX+SN6m9uVXSCBCCftEiFie7HMv/
iYIaAk5Eg5T5T8JK89C4OW3veP5qRHUL5lRSA/lBP33uDIvEQ2xGuebwT4shp/8W
BwBdldtq6zWn3cD6Zpq2hedBqzzB7gV06kbP5r2u8LL4E28wkubHl9wyfGT02zTC
UM4B3gsWUVhbnNMAFpO12n59axbW9YaIYxxm/L2cadHda1bUCjrWwQHcDG3ZsYjK
gYnsj9CiceMg
-----END CERTIFICATE-----
-----BEGIN PRIVATE KEY-----
MIIEvgIBADANBgkqhkiG9w0BAQEFAASCBKgwggSkAgEAAoIBAQC+wJ1PBL8nMn3d
99x0d6zJxXw2rbKAP52jGyisNLVNlN6QzIT95uOSoFbmYBzSxzpjvRfYJ50lZhDq
U+3DdmV98nvZ9o9cX7E+P7GE1NTOLP7D0YMeXo+DUwucEUrgrMGKagfvB/35g50c
q+Ax3URUBcvfGoPIzTk0X+r6Qas2mrFPvgMvlsyhwGwBSa613UXtqYO4t9WTBqKQ
hCqFT5Bii2OupYJMgSUwup7ZZTm1gEhBOfJFifR6wy6Eijt7/YtpEM8u6UWsnsJP
ov0lomCKf2HQ3RYwUkBzWY0SXUIJVokxd7D27d2MqtmyKcnFt45ghhpV4vzf3unx
j7Oi78afAgMBAAECggEBAJH2CWlBlJOFy1JiK0rjmE/80YN1fjUseI8qZQEAhAsN
cxERrmIqntC/6D74JJYU5NUVCH3aMiE/7ImiFzmOCzNIrQSn6iMhBhs/2bJuuTfa
rkdgthgy+1Xd4fBWOxmYl7A2WkPJtcmLsFkUG8WMLpCsrsfVHio0/yTYkJFWVpC8
kcUXtKm5VgNOZRZqJmKaI2Fe3oyzz1v2oioU0LY2yet8Ev8mL+WSPLRseKlUEFm7
+zspUr3N2isCuqAD7HMNjxHfd61lxj98v8Q1S+39FCrJ9FDrT9ffKBiwl1suTprO
/xgyRYYNH8QAGWUkxW8UjR+/Q+c87bb/55MtedqPmgECgYEA90ba4j2FLVYGrB4T
GO1ymxertuuAmOAAS0sNivpZRddYyNQ55C6H78X8yjaUaxfukNoX8gWnH+GW/uLi
gUwYeRTbP0XEt+UV0HbHlt+3e8Jjt2H4OakOL3aDuEmluDwLEUhMbOCWUkCbDnBy
gurQuheN1nDFAy8Wp50SoVRpZsECgYEAxXtKXGui/YyYsDOBvtKFjL1vhFW1Xk+h
8o71ZNypzICr4mhE3b7jnRLPFGBtjzlZK3ObOOCgM5srTLcfoOmz2YEUFio2Zv8K
WOZUGUuHHNq9hAedH6bRt4z+bM8PFpbOp4NPLNkhi6ivfPtw8EweNL7Zk48v9cpw
/kGDb+jo5V8CgYBwGDmvZ64QoDfEHJoRqcpTTka0VEvmgV0AxNQt1VFU3MtNtw9L
RmCvLDRtQpLDfYTTO1qxhyh8xloZz6ZYcLODaBX/t9P2fS4HY2EVHvNhcfycLBhH
o0Bf+by6dQBf5TArNHgYvzLFtK3VvNncSTA3u+e7d0GIMPd3IjhI1Cg3wQKBgE9x
NYzQUBUnhhT742ncTpU7b60QvZFe/4sQL2+PxU7bREokH/AEZpQ9iMhtsiU3sMNm
Ej9jPY8FEPofgL2+xfbtkiMIgDIWzxbMMXCrjYLyC+MdHPwqo5rvQTqMYUl5CVEh
5avo/TGtfksM63X/aPdW/zf5FhYOhj4CJNnUHDyJAoGBAOqUxf0gPS5GznsNdQzg
f1KlNuYutE8dxFMC047ITOn+5z76avVHQxiVSQs7C+Pes/3BTUsktqZhkj2VmmuG
LeXWNodpXOa/DoxkrHwOvgtP4oRVfdB+vfIJAAgnx4spUBCMQjRJ/2r7adswXKqJ
Maj/qJuwqKHOEUbKiN5cPzHr
-----END PRIVATE KEY-----
